; Function Attrs: mustprogress uwtable
define internal noundef signext i8 @_ZL14action_resolveP14UBiDiTransformP10UErrorCode(ptr noundef readonly captures(none) %0, ptr noundef %1) #0 {
  %3 = load ptr, ptr %0, align 8, !tbaa !7
  %4 = getelementptr inbounds nuw i8, ptr %0, i64 16
  %5 = load ptr, ptr %4, align 8, !tbaa !14
  %6 = getelementptr inbounds nuw i8, ptr %0, i64 32
  %7 = load i32, ptr %6, align 8, !tbaa !34
  %8 = getelementptr inbounds nuw i8, ptr %0, i64 8
  %9 = load ptr, ptr %8, align 8, !tbaa !25
  %10 = getelementptr inbounds nuw i8, ptr %9, i64 24
  %11 = load i8, ptr %10, align 8, !tbaa !38
  tail call void @ubidi_setPara_77(ptr noundef %3, ptr noundef %5, i32 noundef %7, i8 noundef zeroext %11, ptr noundef null, ptr noundef %1)
  ret i8 0
}